target datalayout = "e-m:e-p270:32:32-p271:32:32-p272:64:64-i64:64-i128:128-f80:128-n8:16:32:64-S128"
target triple = "x86_64-pc-linux-gnu"

%struct.QemuMutex = type { %union.pthread_mutex_t, i8 }
%union.pthread_mutex_t = type { %struct.__pthread_mutex_s }
%struct.__pthread_mutex_s = type { i32, i32, i32, i32, i32, i16, i16, %struct.__pthread_internal_list }
%struct.__pthread_internal_list = type { ptr, ptr }
%struct.Job = type { ptr, ptr, ptr, i8, i8, ptr, ptr, %struct.ProgressMeter, ptr, i32, i32, %struct.QEMUTimer, i32, i8, i8, i8, i8, i8, i8, i32, ptr, %struct.NotifierList, %struct.NotifierList, %struct.NotifierList, %struct.NotifierList, %struct.NotifierList, %struct.anon.1, ptr, %struct.anon.2 }
%struct.ProgressMeter = type { i64, i64, %struct.QemuMutex }
%struct.QEMUTimer = type { i64, ptr, ptr, ptr, ptr, i32, i32 }
%struct.NotifierList = type { %struct.anon.0 }
%struct.anon.0 = type { ptr }
%struct.anon.1 = type { ptr, ptr }
%struct.anon.2 = type { ptr, ptr }

@.str = private unnamed_addr constant [14 x i8] c"../qemu/job.c\00", align 1
@__func__.job_is_completed_locked = private unnamed_addr constant [24 x i8] c"job_is_completed_locked\00", align 1

; Function Attrs: nounwind sspstrong uwtable
define dso_local zeroext i1 @job_is_completed_locked(ptr noundef %0) #0 {
  %2 = alloca i1, align 1
  %3 = alloca ptr, align 8
  store ptr %0, ptr %3, align 8
  %4 = load ptr, ptr %3, align 8
  %5 = getelementptr inbounds nuw %struct.Job, ptr %4, i32 0, i32 10
  %6 = load i32, ptr %5, align 4
  switch i32 %6, label %9 [
    i32 0, label %7
    i32 1, label %7
    i32 2, label %7
    i32 3, label %7
    i32 4, label %7
    i32 5, label %7
    i32 6, label %8
    i32 7, label %8
    i32 8, label %8
    i32 9, label %8
    i32 10, label %8
  ]

7:                                                ; preds = %1, %1, %1, %1, %1, %1
  store i1 false, ptr %2, align 1
  br label %13

8:                                                ; preds = %1, %1, %1, %1, %1
  store i1 true, ptr %2, align 1
  br label %13

9:                                                ; preds = %1
  br label %10

10:                                               ; preds = %9
  call void @g_assertion_message_expr(ptr noundef null, ptr noundef @.str, i32 noundef 317, ptr noundef @__func__.job_is_completed_locked, ptr noundef null) #17
  unreachable

11:                                               ; No predecessors!
  br label %12

12:                                               ; preds = %11
  store i1 false, ptr %2, align 1
  br label %13

13:                                               ; preds = %12, %8, %7
  %14 = load i1, ptr %2, align 1
  ret i1 %14
}