; Function Attrs: nounwind sspstrong uwtable
define dso_local noundef zeroext i1 @job_is_completed_locked(ptr noundef readonly captures(none) %0) local_unnamed_addr #0 {
  %2 = getelementptr inbounds nuw i8, ptr %0, i64 124
  %3 = load i32, ptr %2, align 4
  %4 = icmp ult i32 %3, 11
  br i1 %4, label %switch.lookup, label %5

5:                                                ; preds = %1
  tail call void @g_assertion_message_expr(ptr noundef null, ptr noundef nonnull @.str, i32 noundef 317, ptr noundef nonnull @__func__.job_is_completed_locked, ptr noundef null) #17
  unreachable

switch.lookup:                                    ; preds = %1
  %switch.cast = trunc nuw i32 %3 to i11
  %switch.downshift = lshr i11 -64, %switch.cast
  %switch.masked = trunc i11 %switch.downshift to i1
  ret i1 %switch.masked
}